; Function Attrs: mustprogress nofree nounwind uwtable
define noundef zeroext i1 @_ZN3vcg9Trackball12SetFromAsciiEPKc(ptr noundef nonnull align 8 dereferenceable(597) %0, ptr nocapture noundef readonly %1) local_unnamed_addr #18 align 2 {
  %3 = getelementptr inbounds i8, ptr %0, i64 4
  %4 = getelementptr inbounds i8, ptr %0, i64 8
  %5 = getelementptr inbounds i8, ptr %0, i64 12
  %6 = getelementptr inbounds i8, ptr %0, i64 16
  %7 = getelementptr inbounds i8, ptr %0, i64 20
  %8 = getelementptr inbounds i8, ptr %0, i64 24
  %9 = getelementptr inbounds i8, ptr %0, i64 28
  %10 = tail call i32 (ptr, ptr, ...) @__isoc99_sscanf(ptr noundef %1, ptr noundef nonnull @.str, ptr noundef nonnull %0, ptr noundef nonnull %3, ptr noundef nonnull %4, ptr noundef nonnull %5, ptr noundef nonnull %6, ptr noundef nonnull %7, ptr noundef nonnull %8, ptr noundef nonnull %9) #27
  %11 = icmp eq i32 %10, 8
  ret i1 %11
}